target datalayout = "e-m:e-p270:32:32-p271:32:32-p272:64:64-i64:64-i128:128-f80:128-n8:16:32:64-S128"
target triple = "x86_64-pc-linux-gnu"

%"struct.absl::debugging_internal::State" = type { ptr, ptr, i32, i32, i32, %"struct.absl::debugging_internal::ParseState" }
%"struct.absl::debugging_internal::ParseState" = type { i32, i32, i32, i32 }

@.str.2 = private unnamed_addr constant [2 x i8] c" \00", align 1

; Function Attrs: mustprogress nounwind uwtable
define internal noundef zeroext i1 @_ZN4absl18debugging_internalL7IsAlphaEc(i8 noundef signext %0) #3 {
  %2 = alloca i8, align 1
  store i8 %0, ptr %2, align 1, !tbaa !11
  %3 = load i8, ptr %2, align 1, !tbaa !11
  %4 = sext i8 %3 to i32
  %5 = icmp sge i32 %4, 97
  br i1 %5, label %6, label %10

6:                                                ; preds = %1
  %7 = load i8, ptr %2, align 1, !tbaa !11
  %8 = sext i8 %7 to i32
  %9 = icmp sle i32 %8, 122
  br i1 %9, label %20, label %10

10:                                               ; preds = %6, %1
  %11 = load i8, ptr %2, align 1, !tbaa !11
  %12 = sext i8 %11 to i32
  %13 = icmp sge i32 %12, 65
  br i1 %13, label %14, label %18

14:                                               ; preds = %10
  %15 = load i8, ptr %2, align 1, !tbaa !11
  %16 = sext i8 %15 to i32
  %17 = icmp sle i32 %16, 90
  br label %18

18:                                               ; preds = %14, %10
  %19 = phi i1 [ false, %10 ], [ %17, %14 ]
  br label %20

20:                                               ; preds = %18, %6
  %21 = phi i1 [ true, %6 ], [ %19, %18 ]
  ret i1 %21
}

; Function Attrs: mustprogress nounwind uwtable
define internal void @_ZN4absl18debugging_internalL6AppendEPNS0_5StateEPKcm(ptr noundef %0, ptr noundef %1, i64 noundef %2) #3 {
  %4 = alloca ptr, align 8
  %5 = alloca ptr, align 8
  %6 = alloca i64, align 8
  %7 = alloca i64, align 8
  %8 = alloca i32, align 4
  store ptr %0, ptr %4, align 8, !tbaa !16
  store ptr %1, ptr %5, align 8, !tbaa !4
  store i64 %2, ptr %6, align 8, !tbaa !9
  call void @llvm.lifetime.start.p0(i64 8, ptr %7) #12
  store i64 0, ptr %7, align 8, !tbaa !9
  br label %9

9:                                                ; preds = %48, %3
  %10 = load i64, ptr %7, align 8, !tbaa !9
  %11 = load i64, ptr %6, align 8, !tbaa !9
  %12 = icmp ult i64 %10, %11
  br i1 %12, label %14, label %13

13:                                               ; preds = %9
  store i32 2, ptr %8, align 4
  br label %51

14:                                               ; preds = %9
  %15 = load ptr, ptr %4, align 8, !tbaa !16
  %16 = getelementptr inbounds nuw %"struct.absl::debugging_internal::State", ptr %15, i32 0, i32 5
  %17 = getelementptr inbounds nuw %"struct.absl::debugging_internal::ParseState", ptr %16, i32 0, i32 1
  %18 = load i32, ptr %17, align 4, !tbaa !12
  %19 = add nsw i32 %18, 1
  %20 = load ptr, ptr %4, align 8, !tbaa !16
  %21 = getelementptr inbounds nuw %"struct.absl::debugging_internal::State", ptr %20, i32 0, i32 2
  %22 = load i32, ptr %21, align 8, !tbaa !19
  %23 = icmp slt i32 %19, %22
  br i1 %23, label %24, label %39

24:                                               ; preds = %14
  %25 = load ptr, ptr %5, align 8, !tbaa !4
  %26 = load i64, ptr %7, align 8, !tbaa !9
  %27 = getelementptr inbounds nuw i8, ptr %25, i64 %26
  %28 = load i8, ptr %27, align 1, !tbaa !11
  %29 = load ptr, ptr %4, align 8, !tbaa !16
  %30 = getelementptr inbounds nuw %"struct.absl::debugging_internal::State", ptr %29, i32 0, i32 1
  %31 = load ptr, ptr %30, align 8, !tbaa !18
  %32 = load ptr, ptr %4, align 8, !tbaa !16
  %33 = getelementptr inbounds nuw %"struct.absl::debugging_internal::State", ptr %32, i32 0, i32 5
  %34 = getelementptr inbounds nuw %"struct.absl::debugging_internal::ParseState", ptr %33, i32 0, i32 1
  %35 = load i32, ptr %34, align 4, !tbaa !12
  %36 = add nsw i32 %35, 1
  store i32 %36, ptr %34, align 4, !tbaa !12
  %37 = sext i32 %35 to i64
  %38 = getelementptr inbounds i8, ptr %31, i64 %37
  store i8 %28, ptr %38, align 1, !tbaa !11
  br label %47

39:                                               ; preds = %14
  %40 = load ptr, ptr %4, align 8, !tbaa !16
  %41 = getelementptr inbounds nuw %"struct.absl::debugging_internal::State", ptr %40, i32 0, i32 2
  %42 = load i32, ptr %41, align 8, !tbaa !19
  %43 = add nsw i32 %42, 1
  %44 = load ptr, ptr %4, align 8, !tbaa !16
  %45 = getelementptr inbounds nuw %"struct.absl::debugging_internal::State", ptr %44, i32 0, i32 5
  %46 = getelementptr inbounds nuw %"struct.absl::debugging_internal::ParseState", ptr %45, i32 0, i32 1
  store i32 %43, ptr %46, align 4, !tbaa !12
  store i32 2, ptr %8, align 4
  br label %51

47:                                               ; preds = %24
  br label %48

48:                                               ; preds = %47
  %49 = load i64, ptr %7, align 8, !tbaa !9
  %50 = add i64 %49, 1
  store i64 %50, ptr %7, align 8, !tbaa !9
  br label %9, !llvm.loop !53

51:                                               ; preds = %39, %13
  call void @llvm.lifetime.end.p0(i64 8, ptr %7) #12
  br label %52

52:                                               ; preds = %51
  %53 = load ptr, ptr %4, align 8, !tbaa !16
  %54 = getelementptr inbounds nuw %"struct.absl::debugging_internal::State", ptr %53, i32 0, i32 5
  %55 = getelementptr inbounds nuw %"struct.absl::debugging_internal::ParseState", ptr %54, i32 0, i32 1
  %56 = load i32, ptr %55, align 4, !tbaa !12
  %57 = load ptr, ptr %4, align 8, !tbaa !16
  %58 = getelementptr inbounds nuw %"struct.absl::debugging_internal::State", ptr %57, i32 0, i32 2
  %59 = load i32, ptr %58, align 8, !tbaa !19
  %60 = icmp slt i32 %56, %59
  br i1 %60, label %61, label %71

61:                                               ; preds = %52
  %62 = load ptr, ptr %4, align 8, !tbaa !16
  %63 = getelementptr inbounds nuw %"struct.absl::debugging_internal::State", ptr %62, i32 0, i32 1
  %64 = load ptr, ptr %63, align 8, !tbaa !18
  %65 = load ptr, ptr %4, align 8, !tbaa !16
  %66 = getelementptr inbounds nuw %"struct.absl::debugging_internal::State", ptr %65, i32 0, i32 5
  %67 = getelementptr inbounds nuw %"struct.absl::debugging_internal::ParseState", ptr %66, i32 0, i32 1
  %68 = load i32, ptr %67, align 4, !tbaa !12
  %69 = sext i32 %68 to i64
  %70 = getelementptr inbounds i8, ptr %64, i64 %69
  store i8 0, ptr %70, align 1, !tbaa !11
  br label %71

71:                                               ; preds = %61, %52
  ret void
}

; Function Attrs: mustprogress nounwind uwtable
define internal noundef zeroext i1 @_ZN4absl18debugging_internalL8EndsWithEPNS0_5StateEc(ptr noundef %0, i8 noundef signext %1) #3 {
  %3 = alloca ptr, align 8
  %4 = alloca i8, align 1
  store ptr %0, ptr %3, align 8, !tbaa !16
  store i8 %1, ptr %4, align 1, !tbaa !11
  %5 = load ptr, ptr %3, align 8, !tbaa !16
  %6 = getelementptr inbounds nuw %"struct.absl::debugging_internal::State", ptr %5, i32 0, i32 5
  %7 = getelementptr inbounds nuw %"struct.absl::debugging_internal::ParseState", ptr %6, i32 0, i32 1
  %8 = load i32, ptr %7, align 4, !tbaa !12
  %9 = icmp sgt i32 %8, 0
  br i1 %9, label %10, label %35

10:                                               ; preds = %2
  %11 = load ptr, ptr %3, align 8, !tbaa !16
  %12 = getelementptr inbounds nuw %"struct.absl::debugging_internal::State", ptr %11, i32 0, i32 5
  %13 = getelementptr inbounds nuw %"struct.absl::debugging_internal::ParseState", ptr %12, i32 0, i32 1
  %14 = load i32, ptr %13, align 4, !tbaa !12
  %15 = load ptr, ptr %3, align 8, !tbaa !16
  %16 = getelementptr inbounds nuw %"struct.absl::debugging_internal::State", ptr %15, i32 0, i32 2
  %17 = load i32, ptr %16, align 8, !tbaa !19
  %18 = icmp slt i32 %14, %17
  br i1 %18, label %19, label %35

19:                                               ; preds = %10
  %20 = load i8, ptr %4, align 1, !tbaa !11
  %21 = sext i8 %20 to i32
  %22 = load ptr, ptr %3, align 8, !tbaa !16
  %23 = getelementptr inbounds nuw %"struct.absl::debugging_internal::State", ptr %22, i32 0, i32 1
  %24 = load ptr, ptr %23, align 8, !tbaa !18
  %25 = load ptr, ptr %3, align 8, !tbaa !16
  %26 = getelementptr inbounds nuw %"struct.absl::debugging_internal::State", ptr %25, i32 0, i32 5
  %27 = getelementptr inbounds nuw %"struct.absl::debugging_internal::ParseState", ptr %26, i32 0, i32 1
  %28 = load i32, ptr %27, align 4, !tbaa !12
  %29 = sub nsw i32 %28, 1
  %30 = sext i32 %29 to i64
  %31 = getelementptr inbounds i8, ptr %24, i64 %30
  %32 = load i8, ptr %31, align 1, !tbaa !11
  %33 = sext i8 %32 to i32
  %34 = icmp eq i32 %21, %33
  br label %35

35:                                               ; preds = %19, %10, %2
  %36 = phi i1 [ false, %10 ], [ false, %2 ], [ %34, %19 ]
  ret i1 %36
}

; Function Attrs: mustprogress uwtable
define internal void @_ZN4absl18debugging_internalL21MaybeAppendWithLengthEPNS0_5StateEPKcm(ptr noundef %0, ptr noundef %1, i64 noundef %2) #0 {
  %4 = alloca ptr, align 8
  %5 = alloca ptr, align 8
  %6 = alloca i64, align 8
  store ptr %0, ptr %4, align 8, !tbaa !16
  store ptr %1, ptr %5, align 8, !tbaa !4
  store i64 %2, ptr %6, align 8, !tbaa !9
  %7 = load ptr, ptr %4, align 8, !tbaa !16
  %8 = getelementptr inbounds nuw %"struct.absl::debugging_internal::State", ptr %7, i32 0, i32 5
  %9 = getelementptr inbounds nuw %"struct.absl::debugging_internal::ParseState", ptr %8, i32 0, i32 3
  %10 = load i32, ptr %9, align 4
  %11 = lshr i32 %10, 31
  %12 = icmp ne i32 %11, 0
  br i1 %12, label %13, label %68

13:                                               ; preds = %3
  %14 = load i64, ptr %6, align 8, !tbaa !9
  %15 = icmp ugt i64 %14, 0
  br i1 %15, label %16, label %68

16:                                               ; preds = %13
  %17 = load ptr, ptr %5, align 8, !tbaa !4
  %18 = getelementptr inbounds i8, ptr %17, i64 0
  %19 = load i8, ptr %18, align 1, !tbaa !11
  %20 = sext i8 %19 to i32
  %21 = icmp eq i32 %20, 60
  br i1 %21, label %22, label %27

22:                                               ; preds = %16
  %23 = load ptr, ptr %4, align 8, !tbaa !16
  %24 = call noundef zeroext i1 @_ZN4absl18debugging_internalL8EndsWithEPNS0_5StateEc(ptr noundef %23, i8 noundef signext 60)
  br i1 %24, label %25, label %27

25:                                               ; preds = %22
  %26 = load ptr, ptr %4, align 8, !tbaa !16
  call void @_ZN4absl18debugging_internalL6AppendEPNS0_5StateEPKcm(ptr noundef %26, ptr noundef @.str.2, i64 noundef 1)
  br label %27

27:                                               ; preds = %25, %22, %16
  %28 = load ptr, ptr %4, align 8, !tbaa !16
  %29 = getelementptr inbounds nuw %"struct.absl::debugging_internal::State", ptr %28, i32 0, i32 5
  %30 = getelementptr inbounds nuw %"struct.absl::debugging_internal::ParseState", ptr %29, i32 0, i32 1
  %31 = load i32, ptr %30, align 4, !tbaa !12
  %32 = load ptr, ptr %4, align 8, !tbaa !16
  %33 = getelementptr inbounds nuw %"struct.absl::debugging_internal::State", ptr %32, i32 0, i32 2
  %34 = load i32, ptr %33, align 8, !tbaa !19
  %35 = icmp slt i32 %31, %34
  br i1 %35, label %36, label %64

36:                                               ; preds = %27
  %37 = load ptr, ptr %5, align 8, !tbaa !4
  %38 = getelementptr inbounds i8, ptr %37, i64 0
  %39 = load i8, ptr %38, align 1, !tbaa !11
  %40 = call noundef zeroext i1 @_ZN4absl18debugging_internalL7IsAlphaEc(i8 noundef signext %39)
  br i1 %40, label %47, label %41

41:                                               ; preds = %36
  %42 = load ptr, ptr %5, align 8, !tbaa !4
  %43 = getelementptr inbounds i8, ptr %42, i64 0
  %44 = load i8, ptr %43, align 1, !tbaa !11
  %45 = sext i8 %44 to i32
  %46 = icmp eq i32 %45, 95
  br i1 %46, label %47, label %64

47:                                               ; preds = %41, %36
  %48 = load ptr, ptr %4, align 8, !tbaa !16
  %49 = getelementptr inbounds nuw %"struct.absl::debugging_internal::State", ptr %48, i32 0, i32 5
  %50 = getelementptr inbounds nuw %"struct.absl::debugging_internal::ParseState", ptr %49, i32 0, i32 1
  %51 = load i32, ptr %50, align 4, !tbaa !12
  %52 = load ptr, ptr %4, align 8, !tbaa !16
  %53 = getelementptr inbounds nuw %"struct.absl::debugging_internal::State", ptr %52, i32 0, i32 5
  %54 = getelementptr inbounds nuw %"struct.absl::debugging_internal::ParseState", ptr %53, i32 0, i32 2
  store i32 %51, ptr %54, align 4, !tbaa !23
  %55 = load i64, ptr %6, align 8, !tbaa !9
  %56 = trunc i64 %55 to i32
  %57 = load ptr, ptr %4, align 8, !tbaa !16
  %58 = getelementptr inbounds nuw %"struct.absl::debugging_internal::State", ptr %57, i32 0, i32 5
  %59 = getelementptr inbounds nuw %"struct.absl::debugging_internal::ParseState", ptr %58, i32 0, i32 3
  %60 = load i32, ptr %59, align 4
  %61 = and i32 %56, 65535
  %62 = and i32 %60, -65536
  %63 = or i32 %62, %61
  store i32 %63, ptr %59, align 4
  br label %64

64:                                               ; preds = %47, %41, %27
  %65 = load ptr, ptr %4, align 8, !tbaa !16
  %66 = load ptr, ptr %5, align 8, !tbaa !4
  %67 = load i64, ptr %6, align 8, !tbaa !9
  call void @_ZN4absl18debugging_internalL6AppendEPNS0_5StateEPKcm(ptr noundef %65, ptr noundef %66, i64 noundef %67)
  br label %68

68:                                               ; preds = %64, %13, %3
  ret void
}