; Function Attrs: mustprogress nofree norecurse nosync nounwind memory(readwrite, inaccessiblemem: none) uwtable
define internal fastcc void @_ZN4absl18debugging_internalL21MaybeAppendWithLengthEPNS0_5StateEPKcm(ptr noundef captures(none) %0, ptr noundef readonly captures(none) %1, i64 noundef %2) unnamed_addr #4 {
  %4 = getelementptr inbounds nuw i8, ptr %0, i64 40
  %5 = load i32, ptr %4, align 4
  %6 = icmp slt i32 %5, 0
  %7 = icmp ne i64 %2, 0
  %or.cond = and i1 %7, %6
  br i1 %or.cond, label %8, label %_ZN4absl18debugging_internalL6AppendEPNS0_5StateEPKcm.exit19

8:                                                ; preds = %3
  %9 = load i8, ptr %1, align 1, !tbaa !4
  %10 = icmp eq i8 %9, 60
  br i1 %10, label %11, label %_ZN4absl18debugging_internalL6AppendEPNS0_5StateEPKcm.exit

11:                                               ; preds = %8
  %12 = getelementptr inbounds nuw i8, ptr %0, i64 32
  %13 = load i32, ptr %12, align 4, !tbaa !23
  %14 = icmp sgt i32 %13, 0
  br i1 %14, label %15, label %_ZN4absl18debugging_internalL6AppendEPNS0_5StateEPKcm.exit

15:                                               ; preds = %11
  %16 = getelementptr inbounds nuw i8, ptr %0, i64 16
  %17 = load i32, ptr %16, align 8, !tbaa !14
  %18 = icmp slt i32 %13, %17
  br i1 %18, label %_ZN4absl18debugging_internalL8EndsWithEPNS0_5StateEc.exit, label %_ZN4absl18debugging_internalL6AppendEPNS0_5StateEPKcm.exit

_ZN4absl18debugging_internalL8EndsWithEPNS0_5StateEc.exit: ; preds = %15
  %19 = getelementptr inbounds nuw i8, ptr %0, i64 8
  %20 = load ptr, ptr %19, align 8, !tbaa !13
  %21 = zext nneg i32 %13 to i64
  %22 = getelementptr i8, ptr %20, i64 %21
  %23 = getelementptr i8, ptr %22, i64 -1
  %24 = load i8, ptr %23, align 1, !tbaa !4
  %25 = icmp eq i8 %24, 60
  br i1 %25, label %26, label %_ZN4absl18debugging_internalL6AppendEPNS0_5StateEPKcm.exit

26:                                               ; preds = %_ZN4absl18debugging_internalL8EndsWithEPNS0_5StateEc.exit
  %27 = add nuw nsw i32 %13, 1
  %28 = icmp samesign ult i32 %27, %17
  br i1 %28, label %.loopexit.i, label %.loopexit.i.thread

.loopexit.i.thread:                               ; preds = %26
  %29 = add nuw nsw i32 %17, 1
  store i32 %29, ptr %12, align 4, !tbaa !23
  br label %_ZN4absl18debugging_internalL6AppendEPNS0_5StateEPKcm.exit

.loopexit.i:                                      ; preds = %26
  store i32 %27, ptr %12, align 4, !tbaa !23
  %30 = zext nneg i32 %13 to i64
  %31 = getelementptr inbounds nuw i8, ptr %20, i64 %30
  store i8 32, ptr %31, align 1, !tbaa !4
  %.pre = load i32, ptr %12, align 4, !tbaa !23
  %.pre27 = load i32, ptr %16, align 8, !tbaa !14
  %32 = icmp slt i32 %.pre, %.pre27
  br i1 %32, label %33, label %_ZN4absl18debugging_internalL6AppendEPNS0_5StateEPKcm.exit

33:                                               ; preds = %.loopexit.i
  %34 = load ptr, ptr %19, align 8, !tbaa !13
  %35 = sext i32 %.pre to i64
  %36 = getelementptr inbounds i8, ptr %34, i64 %35
  store i8 0, ptr %36, align 1, !tbaa !4
  br label %_ZN4absl18debugging_internalL6AppendEPNS0_5StateEPKcm.exit

_ZN4absl18debugging_internalL6AppendEPNS0_5StateEPKcm.exit: ; preds = %.loopexit.i.thread, %11, %15, %33, %.loopexit.i, %_ZN4absl18debugging_internalL8EndsWithEPNS0_5StateEc.exit, %8
  %37 = getelementptr inbounds nuw i8, ptr %0, i64 32
  %38 = load i32, ptr %37, align 4, !tbaa !23
  %39 = getelementptr inbounds nuw i8, ptr %0, i64 16
  %40 = load i32, ptr %39, align 8, !tbaa !14
  %41 = icmp slt i32 %38, %40
  br i1 %41, label %42, label %.lr.ph.i

42:                                               ; preds = %_ZN4absl18debugging_internalL6AppendEPNS0_5StateEPKcm.exit
  %43 = load i8, ptr %1, align 1, !tbaa !4
  %44 = and i8 %43, -33
  %45 = add i8 %44, -65
  %46 = icmp ult i8 %45, 26
  %47 = icmp eq i8 %43, 95
  %or.cond20 = or i1 %47, %46
  br i1 %or.cond20, label %48, label %.lr.ph.i

48:                                               ; preds = %42
  %49 = getelementptr inbounds nuw i8, ptr %0, i64 36
  store i32 %38, ptr %49, align 4, !tbaa !46
  %50 = trunc i64 %2 to i32
  %51 = load i32, ptr %4, align 4
  %52 = and i32 %50, 65535
  %53 = and i32 %51, -65536
  %54 = or disjoint i32 %53, %52
  store i32 %54, ptr %4, align 4
  br label %.lr.ph.i

.lr.ph.i:                                         ; preds = %42, %_ZN4absl18debugging_internalL6AppendEPNS0_5StateEPKcm.exit, %48
  %55 = getelementptr inbounds nuw i8, ptr %0, i64 8
  br label %56

56:                                               ; preds = %61, %.lr.ph.i
  %.018.i16 = phi i64 [ 0, %.lr.ph.i ], [ %67, %61 ]
  %57 = load i32, ptr %37, align 4, !tbaa !23
  %58 = add nsw i32 %57, 1
  %59 = load i32, ptr %39, align 8, !tbaa !14
  %60 = icmp slt i32 %58, %59
  br i1 %60, label %61, label %.loopexit.i17.thread

61:                                               ; preds = %56
  %62 = getelementptr inbounds nuw i8, ptr %1, i64 %.018.i16
  %63 = load i8, ptr %62, align 1, !tbaa !4
  %64 = load ptr, ptr %55, align 8, !tbaa !13
  store i32 %58, ptr %37, align 4, !tbaa !23
  %65 = sext i32 %57 to i64
  %66 = getelementptr inbounds i8, ptr %64, i64 %65
  store i8 %63, ptr %66, align 1, !tbaa !4
  %67 = add nuw i64 %.018.i16, 1
  %exitcond.not.i18 = icmp eq i64 %67, %2
  br i1 %exitcond.not.i18, label %.loopexit.i17, label %56, !llvm.loop !41

.loopexit.i17.thread:                             ; preds = %56
  %68 = add nsw i32 %59, 1
  store i32 %68, ptr %37, align 4, !tbaa !23
  br label %_ZN4absl18debugging_internalL6AppendEPNS0_5StateEPKcm.exit19

.loopexit.i17:                                    ; preds = %61
  %.pre28 = load i32, ptr %37, align 4, !tbaa !23
  %.pre29 = load i32, ptr %39, align 8, !tbaa !14
  %69 = icmp slt i32 %.pre28, %.pre29
  br i1 %69, label %70, label %_ZN4absl18debugging_internalL6AppendEPNS0_5StateEPKcm.exit19

70:                                               ; preds = %.loopexit.i17
  %71 = load ptr, ptr %55, align 8, !tbaa !13
  %72 = sext i32 %.pre28 to i64
  %73 = getelementptr inbounds i8, ptr %71, i64 %72
  store i8 0, ptr %73, align 1, !tbaa !4
  br label %_ZN4absl18debugging_internalL6AppendEPNS0_5StateEPKcm.exit19

_ZN4absl18debugging_internalL6AppendEPNS0_5StateEPKcm.exit19: ; preds = %.loopexit.i17.thread, %70, %.loopexit.i17, %3
  ret void
}